target datalayout = "e-m:e-p270:32:32-p271:32:32-p272:64:64-i64:64-i128:128-f80:128-n8:16:32:64-S128"
target triple = "x86_64-pc-linux-gnu"

%struct.nameData = type { [64 x i8] }
%struct.HeapTupleData = type { i32, %struct.ItemPointerData, i32, ptr }
%struct.ItemPointerData = type { %struct.BlockIdData, i16 }
%struct.BlockIdData = type { i16, i16 }
%struct.HeapTupleHeaderData = type { %union.anon.1, %struct.ItemPointerData, i16, i16, i8, [0 x i8] }
%union.anon.1 = type { %struct.HeapTupleFields }
%struct.HeapTupleFields = type { i32, i32, %union.anon.2 }
%union.anon.2 = type { i32 }
%struct.FormData_pg_authid = type { i32, %struct.nameData, i8, i8, i8, i8, i8, i8, i8, i32 }

; Function Attrs: inlinehint nounwind uwtable
define internal ptr @GETSTRUCT(ptr noundef %0) #7 {
  %2 = alloca ptr, align 8
  store ptr %0, ptr %2, align 8
  %3 = load ptr, ptr %2, align 8
  %4 = getelementptr inbounds nuw %struct.HeapTupleData, ptr %3, i32 0, i32 3
  %5 = load ptr, ptr %4, align 8
  %6 = load ptr, ptr %2, align 8
  %7 = getelementptr inbounds nuw %struct.HeapTupleData, ptr %6, i32 0, i32 3
  %8 = load ptr, ptr %7, align 8
  %9 = getelementptr inbounds nuw %struct.HeapTupleHeaderData, ptr %8, i32 0, i32 4
  %10 = load i8, ptr %9, align 2
  %11 = zext i8 %10 to i32
  %12 = sext i32 %11 to i64
  %13 = getelementptr inbounds i8, ptr %5, i64 %12
  ret ptr %13
}

; Function Attrs: inlinehint nounwind uwtable
define internal i64 @ObjectIdGetDatum(i32 noundef %0) #7 {
  %2 = alloca i32, align 4
  store i32 %0, ptr %2, align 4
  %3 = load i32, ptr %2, align 4
  %4 = zext i32 %3 to i64
  ret i64 %4
}

; Function Attrs: nounwind uwtable
define dso_local zeroext i1 @has_bypassrls_privilege(i32 noundef %0) #0 {
  %2 = alloca i1, align 1
  %3 = alloca i32, align 4
  %4 = alloca i8, align 1
  %5 = alloca ptr, align 8
  %6 = alloca i32, align 4
  store i32 %0, ptr %3, align 4
  call void @llvm.lifetime.start.p0(i64 1, ptr %4) #9
  store i8 0, ptr %4, align 1
  call void @llvm.lifetime.start.p0(i64 8, ptr %5) #9
  %7 = load i32, ptr %3, align 4
  %8 = call zeroext i1 @superuser_arg(i32 noundef %7)
  br i1 %8, label %9, label %10

9:                                                ; preds = %1
  store i1 true, ptr %2, align 1
  store i32 1, ptr %6, align 4
  br label %27

10:                                               ; preds = %1
  %11 = load i32, ptr %3, align 4
  %12 = call i64 @ObjectIdGetDatum(i32 noundef %11)
  %13 = call ptr @SearchSysCache1(i32 noundef 11, i64 noundef %12)
  store ptr %13, ptr %5, align 8
  %14 = load ptr, ptr %5, align 8
  %15 = icmp ne ptr %14, null
  br i1 %15, label %16, label %24

16:                                               ; preds = %10
  %17 = load ptr, ptr %5, align 8
  %18 = call ptr @GETSTRUCT(ptr noundef %17)
  %19 = getelementptr inbounds nuw %struct.FormData_pg_authid, ptr %18, i32 0, i32 8
  %20 = load i8, ptr %19, align 2, !range !4, !noundef !5
  %21 = trunc i8 %20 to i1
  %22 = zext i1 %21 to i8
  store i8 %22, ptr %4, align 1
  %23 = load ptr, ptr %5, align 8
  call void @ReleaseSysCache(ptr noundef %23)
  br label %24

24:                                               ; preds = %16, %10
  %25 = load i8, ptr %4, align 1, !range !4, !noundef !5
  %26 = trunc i8 %25 to i1
  store i1 %26, ptr %2, align 1
  store i32 1, ptr %6, align 4
  br label %27

27:                                               ; preds = %24, %9
  call void @llvm.lifetime.end.p0(i64 8, ptr %5) #9
  call void @llvm.lifetime.end.p0(i64 1, ptr %4) #9
  %28 = load i1, ptr %2, align 1
  ret i1 %28
}